target datalayout = "e-m:e-p270:32:32-p271:32:32-p272:64:64-i64:64-i128:128-f80:128-n8:16:32:64-S128"
target triple = "x86_64-pc-linux-gnu"

%struct.pmix_tma = type { ptr, ptr, ptr, ptr, ptr, ptr, ptr, ptr }
%struct.pmix_regattr_t = type { ptr, [512 x i8], i16, ptr }

; Function Attrs: inlinehint nounwind uwtable
define internal void @pmix_strncpy(ptr noundef %0, ptr noundef %1, i64 noundef %2) #2 {
  %4 = alloca ptr, align 8
  %5 = alloca ptr, align 8
  %6 = alloca i64, align 8
  %7 = alloca i64, align 8
  store ptr %0, ptr %4, align 8, !tbaa !43
  store ptr %1, ptr %5, align 8, !tbaa !43
  store i64 %2, ptr %6, align 8, !tbaa !13
  call void @llvm.lifetime.start.p0(i64 8, ptr %7) #15
  store i64 0, ptr %7, align 8, !tbaa !13
  br label %8

8:                                                ; preds = %22, %3
  %9 = load i64, ptr %7, align 8, !tbaa !13
  %10 = load i64, ptr %6, align 8, !tbaa !13
  %11 = icmp ult i64 %9, %10
  br i1 %11, label %12, label %29

12:                                               ; preds = %8
  %13 = load ptr, ptr %5, align 8, !tbaa !43
  %14 = load i8, ptr %13, align 1, !tbaa !94
  %15 = load ptr, ptr %4, align 8, !tbaa !43
  store i8 %14, ptr %15, align 1, !tbaa !94
  %16 = load ptr, ptr %5, align 8, !tbaa !43
  %17 = load i8, ptr %16, align 1, !tbaa !94
  %18 = sext i8 %17 to i32
  %19 = icmp eq i32 0, %18
  br i1 %19, label %20, label %21

20:                                               ; preds = %12
  br label %29

21:                                               ; preds = %12
  br label %22

22:                                               ; preds = %21
  %23 = load i64, ptr %7, align 8, !tbaa !13
  %24 = add i64 %23, 1
  store i64 %24, ptr %7, align 8, !tbaa !13
  %25 = load ptr, ptr %5, align 8, !tbaa !43
  %26 = getelementptr inbounds nuw i8, ptr %25, i32 1
  store ptr %26, ptr %5, align 8, !tbaa !43
  %27 = load ptr, ptr %4, align 8, !tbaa !43
  %28 = getelementptr inbounds nuw i8, ptr %27, i32 1
  store ptr %28, ptr %4, align 8, !tbaa !43
  br label %8, !llvm.loop !309

29:                                               ; preds = %20, %8
  %30 = load ptr, ptr %4, align 8, !tbaa !43
  store i8 0, ptr %30, align 1, !tbaa !94
  call void @llvm.lifetime.end.p0(i64 8, ptr %7) #15
  ret void
}

; Function Attrs: inlinehint nounwind uwtable
define internal void @pmix_bfrops_base_tma_regattr_construct(ptr noundef %0, ptr noundef %1) #2 {
  %3 = alloca ptr, align 8
  %4 = alloca ptr, align 8
  store ptr %0, ptr %3, align 8, !tbaa !141
  store ptr %1, ptr %4, align 8, !tbaa !15
  %5 = load ptr, ptr %3, align 8, !tbaa !141
  %6 = getelementptr inbounds nuw %struct.pmix_regattr_t, ptr %5, i32 0, i32 0
  store ptr null, ptr %6, align 8, !tbaa !225
  %7 = load ptr, ptr %3, align 8, !tbaa !141
  %8 = getelementptr inbounds nuw %struct.pmix_regattr_t, ptr %7, i32 0, i32 1
  %9 = getelementptr inbounds [512 x i8], ptr %8, i64 0, i64 0
  %10 = load ptr, ptr %4, align 8, !tbaa !15
  call void @pmix_bfrops_base_tma_load_key(ptr noundef %9, ptr noundef null, ptr noundef %10)
  %11 = load ptr, ptr %3, align 8, !tbaa !141
  %12 = getelementptr inbounds nuw %struct.pmix_regattr_t, ptr %11, i32 0, i32 2
  store i16 0, ptr %12, align 8, !tbaa !270
  %13 = load ptr, ptr %3, align 8, !tbaa !141
  %14 = getelementptr inbounds nuw %struct.pmix_regattr_t, ptr %13, i32 0, i32 3
  store ptr null, ptr %14, align 8, !tbaa !227
  ret void
}

; Function Attrs: inlinehint nounwind uwtable
define internal ptr @pmix_tma_malloc(ptr noundef %0, i64 noundef %1) #2 {
  %3 = alloca ptr, align 8
  %4 = alloca ptr, align 8
  %5 = alloca i64, align 8
  store ptr %0, ptr %4, align 8, !tbaa !15
  store i64 %1, ptr %5, align 8, !tbaa !13
  %6 = load ptr, ptr %4, align 8, !tbaa !15
  %7 = icmp ne ptr null, %6
  br i1 %7, label %8, label %15

8:                                                ; preds = %2
  %9 = load ptr, ptr %4, align 8, !tbaa !15
  %10 = getelementptr inbounds nuw %struct.pmix_tma, ptr %9, i32 0, i32 0
  %11 = load ptr, ptr %10, align 8, !tbaa !88
  %12 = load ptr, ptr %4, align 8, !tbaa !15
  %13 = load i64, ptr %5, align 8, !tbaa !13
  %14 = call ptr %11(ptr noundef %12, i64 noundef %13)
  store ptr %14, ptr %3, align 8
  br label %18

15:                                               ; preds = %2
  %16 = load i64, ptr %5, align 8, !tbaa !13
  %17 = call noalias ptr @malloc(i64 noundef %16) #17
  store ptr %17, ptr %3, align 8
  br label %18

18:                                               ; preds = %15, %8
  %19 = load ptr, ptr %3, align 8
  ret ptr %19
}

; Function Attrs: inlinehint nounwind uwtable
define internal void @pmix_bfrops_base_tma_load_key(ptr noundef %0, ptr noundef %1, ptr noundef %2) #2 {
  %4 = alloca ptr, align 8
  %5 = alloca ptr, align 8
  %6 = alloca ptr, align 8
  store ptr %0, ptr %4, align 8, !tbaa !43
  store ptr %1, ptr %5, align 8, !tbaa !43
  store ptr %2, ptr %6, align 8, !tbaa !15
  %7 = load ptr, ptr %4, align 8, !tbaa !43
  call void @llvm.memset.p0.i64(ptr align 1 %7, i8 0, i64 512, i1 false)
  %8 = load ptr, ptr %5, align 8, !tbaa !43
  %9 = icmp ne ptr null, %8
  br i1 %9, label %10, label %13

10:                                               ; preds = %3
  %11 = load ptr, ptr %4, align 8, !tbaa !43
  %12 = load ptr, ptr %5, align 8, !tbaa !43
  call void @pmix_strncpy(ptr noundef %11, ptr noundef %12, i64 noundef 511)
  br label %13

13:                                               ; preds = %10, %3
  ret void
}

; Function Attrs: inlinehint nounwind uwtable
define internal ptr @pmix_tma_strdup(ptr noundef %0, ptr noundef %1) #2 {
  %3 = alloca ptr, align 8
  %4 = alloca ptr, align 8
  %5 = alloca ptr, align 8
  store ptr %0, ptr %4, align 8, !tbaa !15
  store ptr %1, ptr %5, align 8, !tbaa !43
  %6 = load ptr, ptr %4, align 8, !tbaa !15
  %7 = icmp ne ptr null, %6
  br i1 %7, label %8, label %15

8:                                                ; preds = %2
  %9 = load ptr, ptr %4, align 8, !tbaa !15
  %10 = getelementptr inbounds nuw %struct.pmix_tma, ptr %9, i32 0, i32 3
  %11 = load ptr, ptr %10, align 8, !tbaa !243
  %12 = load ptr, ptr %4, align 8, !tbaa !15
  %13 = load ptr, ptr %5, align 8, !tbaa !43
  %14 = call ptr %11(ptr noundef %12, ptr noundef %13)
  store ptr %14, ptr %3, align 8
  br label %18

15:                                               ; preds = %2
  %16 = load ptr, ptr %5, align 8, !tbaa !43
  %17 = call noalias ptr @strdup(ptr noundef %16) #15
  store ptr %17, ptr %3, align 8
  br label %18

18:                                               ; preds = %15, %8
  %19 = load ptr, ptr %3, align 8
  ret ptr %19
}

; Function Attrs: inlinehint nounwind uwtable
define internal ptr @pmix_bfrops_base_tma_regattr_create(i64 noundef %0, ptr noundef %1) #2 {
  %3 = alloca ptr, align 8
  %4 = alloca i64, align 8
  %5 = alloca ptr, align 8
  %6 = alloca ptr, align 8
  %7 = alloca i64, align 8
  store i64 %0, ptr %4, align 8, !tbaa !13
  store ptr %1, ptr %5, align 8, !tbaa !15
  %8 = load i64, ptr %4, align 8, !tbaa !13
  %9 = icmp eq i64 0, %8
  br i1 %9, label %10, label %11

10:                                               ; preds = %2
  store ptr null, ptr %3, align 8
  br label %41

11:                                               ; preds = %2
  call void @llvm.lifetime.start.p0(i64 8, ptr %6) #15
  %12 = load ptr, ptr %5, align 8, !tbaa !15
  %13 = load i64, ptr %4, align 8, !tbaa !13
  %14 = mul i64 %13, 536
  %15 = call ptr @pmix_tma_malloc(ptr noundef %12, i64 noundef %14)
  store ptr %15, ptr %6, align 8, !tbaa !141
  %16 = load ptr, ptr %6, align 8, !tbaa !141
  %17 = icmp ne ptr null, %16
  %18 = xor i1 %17, true
  %19 = xor i1 %18, true
  %20 = zext i1 %19 to i32
  %21 = sext i32 %20 to i64
  %22 = call i64 @llvm.expect.i64(i64 %21, i64 1)
  %23 = icmp ne i64 %22, 0
  br i1 %23, label %24, label %39

24:                                               ; preds = %11
  call void @llvm.lifetime.start.p0(i64 8, ptr %7) #15
  store i64 0, ptr %7, align 8, !tbaa !13
  br label %25

25:                                               ; preds = %35, %24
  %26 = load i64, ptr %7, align 8, !tbaa !13
  %27 = load i64, ptr %4, align 8, !tbaa !13
  %28 = icmp ult i64 %26, %27
  br i1 %28, label %30, label %29

29:                                               ; preds = %25
  call void @llvm.lifetime.end.p0(i64 8, ptr %7) #15
  br label %38

30:                                               ; preds = %25
  %31 = load ptr, ptr %6, align 8, !tbaa !141
  %32 = load i64, ptr %7, align 8, !tbaa !13
  %33 = getelementptr inbounds nuw %struct.pmix_regattr_t, ptr %31, i64 %32
  %34 = load ptr, ptr %5, align 8, !tbaa !15
  call void @pmix_bfrops_base_tma_regattr_construct(ptr noundef %33, ptr noundef %34)
  br label %35

35:                                               ; preds = %30
  %36 = load i64, ptr %7, align 8, !tbaa !13
  %37 = add i64 %36, 1
  store i64 %37, ptr %7, align 8, !tbaa !13
  br label %25, !llvm.loop !336

38:                                               ; preds = %29
  br label %39

39:                                               ; preds = %38, %11
  %40 = load ptr, ptr %6, align 8, !tbaa !141
  store ptr %40, ptr %3, align 8
  call void @llvm.lifetime.end.p0(i64 8, ptr %6) #15
  br label %41

41:                                               ; preds = %39, %10
  %42 = load ptr, ptr %3, align 8
  ret ptr %42
}

; Function Attrs: inlinehint nounwind uwtable
define internal i32 @pmix_bfrops_base_tma_copy_regattr(ptr noundef %0, ptr noundef %1, i16 noundef zeroext %2, ptr noundef %3) #2 {
  %5 = alloca i32, align 4
  %6 = alloca ptr, align 8
  %7 = alloca ptr, align 8
  %8 = alloca i16, align 2
  %9 = alloca ptr, align 8
  store ptr %0, ptr %6, align 8, !tbaa !303
  store ptr %1, ptr %7, align 8, !tbaa !141
  store i16 %2, ptr %8, align 2, !tbaa !85
  store ptr %3, ptr %9, align 8, !tbaa !15
  %10 = load ptr, ptr %9, align 8, !tbaa !15
  %11 = call ptr @pmix_bfrops_base_tma_regattr_create(i64 noundef 1, ptr noundef %10)
  %12 = load ptr, ptr %6, align 8, !tbaa !303
  store ptr %11, ptr %12, align 8, !tbaa !141
  %13 = load ptr, ptr %6, align 8, !tbaa !303
  %14 = load ptr, ptr %13, align 8, !tbaa !141
  %15 = icmp eq ptr null, %14
  %16 = xor i1 %15, true
  %17 = xor i1 %16, true
  %18 = zext i1 %17 to i32
  %19 = sext i32 %18 to i64
  %20 = call i64 @llvm.expect.i64(i64 %19, i64 0)
  %21 = icmp ne i64 %20, 0
  br i1 %21, label %22, label %23

22:                                               ; preds = %4
  store i32 -32, ptr %5, align 4
  br label %60

23:                                               ; preds = %4
  %24 = load ptr, ptr %7, align 8, !tbaa !141
  %25 = getelementptr inbounds nuw %struct.pmix_regattr_t, ptr %24, i32 0, i32 0
  %26 = load ptr, ptr %25, align 8, !tbaa !225
  %27 = icmp ne ptr null, %26
  br i1 %27, label %28, label %37

28:                                               ; preds = %23
  %29 = load ptr, ptr %9, align 8, !tbaa !15
  %30 = load ptr, ptr %7, align 8, !tbaa !141
  %31 = getelementptr inbounds nuw %struct.pmix_regattr_t, ptr %30, i32 0, i32 0
  %32 = load ptr, ptr %31, align 8, !tbaa !225
  %33 = call ptr @pmix_tma_strdup(ptr noundef %29, ptr noundef %32)
  %34 = load ptr, ptr %6, align 8, !tbaa !303
  %35 = load ptr, ptr %34, align 8, !tbaa !141
  %36 = getelementptr inbounds nuw %struct.pmix_regattr_t, ptr %35, i32 0, i32 0
  store ptr %33, ptr %36, align 8, !tbaa !225
  br label %37

37:                                               ; preds = %28, %23
  %38 = load ptr, ptr %6, align 8, !tbaa !303
  %39 = load ptr, ptr %38, align 8, !tbaa !141
  %40 = getelementptr inbounds nuw %struct.pmix_regattr_t, ptr %39, i32 0, i32 1
  %41 = getelementptr inbounds [512 x i8], ptr %40, i64 0, i64 0
  %42 = load ptr, ptr %7, align 8, !tbaa !141
  %43 = getelementptr inbounds nuw %struct.pmix_regattr_t, ptr %42, i32 0, i32 1
  %44 = getelementptr inbounds [512 x i8], ptr %43, i64 0, i64 0
  %45 = load ptr, ptr %9, align 8, !tbaa !15
  call void @pmix_bfrops_base_tma_load_key(ptr noundef %41, ptr noundef %44, ptr noundef %45)
  %46 = load ptr, ptr %7, align 8, !tbaa !141
  %47 = getelementptr inbounds nuw %struct.pmix_regattr_t, ptr %46, i32 0, i32 2
  %48 = load i16, ptr %47, align 8, !tbaa !270
  %49 = load ptr, ptr %6, align 8, !tbaa !303
  %50 = load ptr, ptr %49, align 8, !tbaa !141
  %51 = getelementptr inbounds nuw %struct.pmix_regattr_t, ptr %50, i32 0, i32 2
  store i16 %48, ptr %51, align 8, !tbaa !270
  %52 = load ptr, ptr %7, align 8, !tbaa !141
  %53 = getelementptr inbounds nuw %struct.pmix_regattr_t, ptr %52, i32 0, i32 3
  %54 = load ptr, ptr %53, align 8, !tbaa !227
  %55 = load ptr, ptr %9, align 8, !tbaa !15
  %56 = call ptr @pmix_bfrops_base_tma_argv_copy(ptr noundef %54, ptr noundef %55)
  %57 = load ptr, ptr %6, align 8, !tbaa !303
  %58 = load ptr, ptr %57, align 8, !tbaa !141
  %59 = getelementptr inbounds nuw %struct.pmix_regattr_t, ptr %58, i32 0, i32 3
  store ptr %56, ptr %59, align 8, !tbaa !227
  store i32 0, ptr %5, align 4
  br label %60

60:                                               ; preds = %37, %22
  %61 = load i32, ptr %5, align 4
  ret i32 %61
}