; Function Attrs: inlinehint nounwind uwtable
define internal fastcc range(i32 -32, 1) i32 @pmix_bfrops_base_tma_copy_regattr(ptr noundef nonnull captures(none) initializes((0, 8)) %0, ptr noundef readonly captures(none) %1, ptr noundef %2) unnamed_addr #4 {
  %.not.i.i = icmp eq ptr %2, null
  br i1 %.not.i.i, label %7, label %4

4:                                                ; preds = %3
  %5 = load ptr, ptr %2, align 8, !tbaa !39
  %6 = tail call ptr %5(ptr noundef nonnull %2, i64 noundef 536) #17
  br label %pmix_tma_malloc.exit.i

7:                                                ; preds = %3
  %8 = tail call noalias dereferenceable_or_null(536) ptr @malloc(i64 noundef 536) #18
  br label %pmix_tma_malloc.exit.i

pmix_tma_malloc.exit.i:                           ; preds = %7, %4
  %.0.i.i = phi ptr [ %6, %4 ], [ %8, %7 ]
  %.not.i = icmp eq ptr %.0.i.i, null
  br i1 %.not.i, label %pmix_bfrops_base_tma_regattr_create.exit.thread, label %.preheader.i.preheader, !prof !29

.preheader.i.preheader:                           ; preds = %pmix_tma_malloc.exit.i
  %9 = getelementptr inbounds nuw i8, ptr %.0.i.i, i64 528
  store ptr null, ptr %9, align 8, !tbaa !145
  tail call void @llvm.memset.p0.i64(ptr noundef nonnull align 8 dereferenceable(522) %.0.i.i, i8 0, i64 522, i1 false)
  store ptr %.0.i.i, ptr %0, align 8, !tbaa !301
  %10 = load ptr, ptr %1, align 8, !tbaa !143
  %.not = icmp eq ptr %10, null
  br i1 %.not, label %19, label %11

pmix_bfrops_base_tma_regattr_create.exit.thread:  ; preds = %pmix_tma_malloc.exit.i
  store ptr null, ptr %0, align 8, !tbaa !301
  br label %38

11:                                               ; preds = %.preheader.i.preheader
  br i1 %.not.i.i, label %16, label %12

12:                                               ; preds = %11
  %13 = getelementptr inbounds nuw i8, ptr %2, i64 24
  %14 = load ptr, ptr %13, align 8, !tbaa !194
  %15 = tail call ptr %14(ptr noundef nonnull %2, ptr noundef nonnull %10) #17
  %.pre = load ptr, ptr %0, align 8, !tbaa !301
  br label %pmix_tma_strdup.exit

16:                                               ; preds = %11
  %17 = tail call noalias ptr @strdup(ptr noundef nonnull %10) #17
  br label %pmix_tma_strdup.exit

pmix_tma_strdup.exit:                             ; preds = %12, %16
  %18 = phi ptr [ %.pre, %12 ], [ %.0.i.i, %16 ]
  %.0.i = phi ptr [ %15, %12 ], [ %17, %16 ]
  store ptr %.0.i, ptr %18, align 8, !tbaa !143
  br label %19

19:                                               ; preds = %pmix_tma_strdup.exit, %.preheader.i.preheader
  %20 = phi ptr [ %18, %pmix_tma_strdup.exit ], [ %.0.i.i, %.preheader.i.preheader ]
  %21 = getelementptr inbounds nuw i8, ptr %20, i64 8
  %22 = getelementptr inbounds nuw i8, ptr %1, i64 8
  tail call void @llvm.memset.p0.i64(ptr noundef nonnull align 1 dereferenceable(512) %21, i8 0, i64 512, i1 false)
  br label %.preheader.i18

.preheader.i18:                                   ; preds = %19, %25
  %.012.i.i = phi i64 [ %26, %25 ], [ 0, %19 ]
  %.0811.i.i = phi ptr [ %28, %25 ], [ %21, %19 ]
  %.0910.i.i = phi ptr [ %27, %25 ], [ %22, %19 ]
  %23 = load i8, ptr %.0910.i.i, align 1, !tbaa !92
  store i8 %23, ptr %.0811.i.i, align 1, !tbaa !92
  %24 = icmp eq i8 %23, 0
  br i1 %24, label %pmix_bfrops_base_tma_load_key.exit, label %25

25:                                               ; preds = %.preheader.i18
  %26 = add nuw nsw i64 %.012.i.i, 1
  %27 = getelementptr inbounds nuw i8, ptr %.0910.i.i, i64 1
  %28 = getelementptr inbounds nuw i8, ptr %.0811.i.i, i64 1
  %exitcond.not.i.i = icmp eq i64 %26, 511
  br i1 %exitcond.not.i.i, label %pmix_bfrops_base_tma_load_key.exit, label %.preheader.i18, !llvm.loop !197

pmix_bfrops_base_tma_load_key.exit:               ; preds = %.preheader.i18, %25
  %.08.lcssa.i.i = phi ptr [ %.0811.i.i, %.preheader.i18 ], [ %28, %25 ]
  store i8 0, ptr %.08.lcssa.i.i, align 1, !tbaa !92
  %29 = getelementptr inbounds nuw i8, ptr %1, i64 520
  %30 = load i16, ptr %29, align 8, !tbaa !240
  %31 = load ptr, ptr %0, align 8, !tbaa !301
  %32 = getelementptr inbounds nuw i8, ptr %31, i64 520
  store i16 %30, ptr %32, align 8, !tbaa !240
  %33 = getelementptr inbounds nuw i8, ptr %1, i64 528
  %34 = load ptr, ptr %33, align 8, !tbaa !145
  %35 = tail call fastcc ptr @pmix_bfrops_base_tma_argv_copy(ptr noundef %34, ptr noundef %2)
  %36 = load ptr, ptr %0, align 8, !tbaa !301
  %37 = getelementptr inbounds nuw i8, ptr %36, i64 528
  store ptr %35, ptr %37, align 8, !tbaa !145
  br label %38

38:                                               ; preds = %pmix_bfrops_base_tma_regattr_create.exit.thread, %pmix_bfrops_base_tma_load_key.exit
  %.0 = phi i32 [ 0, %pmix_bfrops_base_tma_load_key.exit ], [ -32, %pmix_bfrops_base_tma_regattr_create.exit.thread ]
  ret i32 %.0
}